target datalayout = "e-m:e-p270:32:32-p271:32:32-p272:64:64-i64:64-i128:128-f80:128-n8:16:32:64-S128"
target triple = "x86_64-unknown-linux-gnu"

%class.aiVector3t = type { float, float, float }

; Function Attrs: mustprogress nounwind uwtable
define linkonce_odr hidden void @_ZN10aiVector3tIfEC2Efff(ptr noundef nonnull align 4 dereferenceable(12) %this, float noundef %_x, float noundef %_y, float noundef %_z) unnamed_addr #0 comdat align 2 {
entry:
  %this.addr = alloca ptr, align 8
  %_x.addr = alloca float, align 4
  %_y.addr = alloca float, align 4
  %_z.addr = alloca float, align 4
  store ptr %this, ptr %this.addr, align 8
  store float %_x, ptr %_x.addr, align 4
  store float %_y, ptr %_y.addr, align 4
  store float %_z, ptr %_z.addr, align 4
  %this1 = load ptr, ptr %this.addr, align 8
  %x = getelementptr inbounds %class.aiVector3t, ptr %this1, i32 0, i32 0
  %0 = load float, ptr %_x.addr, align 4
  store float %0, ptr %x, align 4
  %y = getelementptr inbounds %class.aiVector3t, ptr %this1, i32 0, i32 1
  %1 = load float, ptr %_y.addr, align 4
  store float %1, ptr %y, align 4
  %z = getelementptr inbounds %class.aiVector3t, ptr %this1, i32 0, i32 2
  %2 = load float, ptr %_z.addr, align 4
  store float %2, ptr %z, align 4
  ret void
}

; Function Attrs: mustprogress uwtable
define linkonce_odr hidden { <2 x float>, float } @_ZN10aiVector3tIfE6SymMulERKS0_(ptr noundef nonnull align 4 dereferenceable(12) %this, ptr noundef nonnull align 4 dereferenceable(12) %o) #5 comdat align 2 {
entry:
  %retval = alloca %class.aiVector3t, align 4
  %this.addr = alloca ptr, align 8
  %o.addr = alloca ptr, align 8
  %retval.coerce = alloca { <2 x float>, float }, align 8
  store ptr %this, ptr %this.addr, align 8
  store ptr %o, ptr %o.addr, align 8
  %this1 = load ptr, ptr %this.addr, align 8
  %x = getelementptr inbounds %class.aiVector3t, ptr %this1, i32 0, i32 0
  %0 = load float, ptr %x, align 4
  %1 = load ptr, ptr %o.addr, align 8
  %x2 = getelementptr inbounds %class.aiVector3t, ptr %1, i32 0, i32 0
  %2 = load float, ptr %x2, align 4
  %mul = fmul float %0, %2
  %y = getelementptr inbounds %class.aiVector3t, ptr %this1, i32 0, i32 1
  %3 = load float, ptr %y, align 4
  %4 = load ptr, ptr %o.addr, align 8
  %y3 = getelementptr inbounds %class.aiVector3t, ptr %4, i32 0, i32 1
  %5 = load float, ptr %y3, align 4
  %mul4 = fmul float %3, %5
  %z = getelementptr inbounds %class.aiVector3t, ptr %this1, i32 0, i32 2
  %6 = load float, ptr %z, align 4
  %7 = load ptr, ptr %o.addr, align 8
  %z5 = getelementptr inbounds %class.aiVector3t, ptr %7, i32 0, i32 2
  %8 = load float, ptr %z5, align 4
  %mul6 = fmul float %6, %8
  call void @_ZN10aiVector3tIfEC2Efff(ptr noundef nonnull align 4 dereferenceable(12) %retval, float noundef %mul, float noundef %mul4, float noundef %mul6)
  call void @llvm.memcpy.p0.p0.i64(ptr align 8 %retval.coerce, ptr align 4 %retval, i64 12, i1 false)
  %9 = load { <2 x float>, float }, ptr %retval.coerce, align 8
  ret { <2 x float>, float } %9
}

; Function Attrs: mustprogress uwtable
define void @aiVector3SymMul(ptr noundef %dst, ptr noundef %other) #12 {
entry:
  %dst.addr = alloca ptr, align 8
  %other.addr = alloca ptr, align 8
  %ref.tmp = alloca %class.aiVector3t, align 4
  %tmp.coerce = alloca { <2 x float>, float }, align 8
  store ptr %dst, ptr %dst.addr, align 8
  store ptr %other, ptr %other.addr, align 8
  %0 = load ptr, ptr %dst.addr, align 8
  %1 = load ptr, ptr %other.addr, align 8
  %call = call { <2 x float>, float } @_ZN10aiVector3tIfE6SymMulERKS0_(ptr noundef nonnull align 4 dereferenceable(12) %0, ptr noundef nonnull align 4 dereferenceable(12) %1)
  store { <2 x float>, float } %call, ptr %tmp.coerce, align 8
  call void @llvm.memcpy.p0.p0.i64(ptr align 4 %ref.tmp, ptr align 8 %tmp.coerce, i64 12, i1 false)
  %2 = load ptr, ptr %dst.addr, align 8
  call void @llvm.memcpy.p0.p0.i64(ptr align 4 %2, ptr align 4 %ref.tmp, i64 12, i1 false)
  ret void
}