; Function Attrs: mustprogress nofree norecurse nosync nounwind willreturn memory(argmem: readwrite) uwtable
define void @aiVector3SymMul(ptr nocapture noundef %dst, ptr nocapture noundef readonly %other) local_unnamed_addr #12 {
entry:
  %0 = load <2 x float>, ptr %dst, align 4
  %1 = load <2 x float>, ptr %other, align 4
  %2 = fmul <2 x float> %0, %1
  %z.i = getelementptr inbounds i8, ptr %dst, i64 8
  %3 = load float, ptr %z.i, align 4
  %z5.i = getelementptr inbounds i8, ptr %other, i64 8
  %4 = load float, ptr %z5.i, align 4
  %mul6.i = fmul float %3, %4
  store <2 x float> %2, ptr %dst, align 4
  store float %mul6.i, ptr %z.i, align 4
  ret void
}